; Function Attrs: mustprogress uwtable
define void @_ZN23grpc_plugin_credentials12debug_stringB5cxx11Ev(ptr noalias sret(%"class.std::__cxx11::basic_string") align 8 %agg.result, ptr nocapture noundef nonnull readonly align 8 dereferenceable(64) %this) unnamed_addr #6 align 2 personality ptr @__gxx_personality_v0 {
entry:
  %ref.tmp = alloca %"class.std::allocator", align 1
  %debug_string = getelementptr inbounds i8, ptr %this, i64 32
  %0 = load ptr, ptr %debug_string, align 8
  %cmp.not = icmp eq ptr %0, null
  br i1 %cmp.not, label %if.end, label %if.then

if.then:                                          ; preds = %entry
  %state = getelementptr inbounds i8, ptr %this, i64 48
  %1 = load ptr, ptr %state, align 8
  %call = tail call noundef ptr %0(ptr noundef %1)
  br label %if.end

if.end:                                           ; preds = %if.then, %entry
  %debug_c_str.0 = phi ptr [ %call, %if.then ], [ null, %entry ]
  %cmp5.not = icmp eq ptr %debug_c_str.0, null
  %cond = select i1 %cmp5.not, ptr @.str.2, ptr %debug_c_str.0
  call void @_ZNSaIcEC1Ev(ptr noundef nonnull align 1 dereferenceable(1) %ref.tmp) #23
  %call.i4 = invoke noundef ptr @_ZNSt7__cxx1112basic_stringIcSt11char_traitsIcESaIcEE13_M_local_dataEv(ptr noundef nonnull align 8 dereferenceable(32) %agg.result)
          to label %call.i.noexc unwind label %lpad

call.i.noexc:                                     ; preds = %if.end
  invoke void @_ZNSt7__cxx1112basic_stringIcSt11char_traitsIcESaIcEE12_Alloc_hiderC1EPcRKS3_(ptr noundef nonnull align 8 dereferenceable(8) %agg.result, ptr noundef %call.i4, ptr noundef nonnull align 1 dereferenceable(1) %ref.tmp)
          to label %.noexc unwind label %lpad

.noexc:                                           ; preds = %call.i.noexc
  %call.i.i = call noundef i64 @strlen(ptr noundef nonnull dereferenceable(1) %cond) #23
  %add.ptr.i = getelementptr inbounds i8, ptr %cond, i64 %call.i.i
  invoke void @_ZNSt7__cxx1112basic_stringIcSt11char_traitsIcESaIcEE12_M_constructIPKcEEvT_S8_St20forward_iterator_tag(ptr noundef nonnull align 8 dereferenceable(32) %agg.result, ptr noundef nonnull %cond, ptr noundef nonnull %add.ptr.i)
          to label %invoke.cont unwind label %lpad.i

lpad.i:                                           ; preds = %.noexc
  %2 = landingpad { ptr, i32 }
          cleanup
  call void @_ZNSaIcED2Ev(ptr noundef nonnull align 1 dereferenceable(1) %agg.result) #23
  br label %lpad.body

invoke.cont:                                      ; preds = %.noexc
  call void @_ZNSaIcED1Ev(ptr noundef nonnull align 1 dereferenceable(1) %ref.tmp) #23
  invoke void @gpr_free(ptr noundef %debug_c_str.0)
          to label %nrvo.skipdtor unwind label %lpad6

lpad:                                             ; preds = %call.i.noexc, %if.end
  %3 = landingpad { ptr, i32 }
          cleanup
  br label %lpad.body

lpad.body:                                        ; preds = %lpad.i, %lpad
  %eh.lpad-body = phi { ptr, i32 } [ %3, %lpad ], [ %2, %lpad.i ]
  call void @_ZNSaIcED1Ev(ptr noundef nonnull align 1 dereferenceable(1) %ref.tmp) #23
  br label %eh.resume

lpad6:                                            ; preds = %invoke.cont
  %4 = landingpad { ptr, i32 }
          cleanup
  call void @_ZNSt7__cxx1112basic_stringIcSt11char_traitsIcESaIcEED1Ev(ptr noundef nonnull align 8 dereferenceable(32) %agg.result) #23
  br label %eh.resume

nrvo.skipdtor:                                    ; preds = %invoke.cont
  ret void

eh.resume:                                        ; preds = %lpad6, %lpad.body
  %.pn = phi { ptr, i32 } [ %4, %lpad6 ], [ %eh.lpad-body, %lpad.body ]
  resume { ptr, i32 } %.pn
}